(lp0
(dp1
VperShareTransRatio
p2
F0.5
sVexchangeCD
p3
VXSHE
p4
sVsecID
p5
V300342.XSHE
p6
sVaccumAdjFactor
p7
F0.6615775824
sVexDivDate
p8
V2016-05-27
p9
sVsecShortName
p10
V\u5929\u94f6\u673a\u7535
p11
sVadjFactor
p12
F0.6615775824
sVendDate
p13
V2015-05-08
p14
sVticker
p15
V300342
p16
sVperCashDiv
p17
F0.300063
sa(dp18
VadjFactor
p19
F0.9929478168
sVexchangeCD
p20
VXSHE
p21
sVsecID
p22
V300342.XSHE
p23
sVexDivDate
p24
V2015-05-08
p25
sVsecShortName
p26
V\u5929\u94f6\u673a\u7535
p27
sVaccumAdjFactor
p28
F0.6569120161
sVendDate
p29
V2014-10-16
p30
sVticker
p31
V300342
p32
sVperCashDiv
p33
F0.25
sa(dp34
VperShareTransRatio
p35
I1
sVexchangeCD
p36
VXSHE
p37
sVsecID
p38
V300342.XSHE
p39
sVaccumAdjFactor
p40
F0.328456008
sVexDivDate
p41
V2014-10-16
p42
sVsecShortName
p43
V\u5929\u94f6\u673a\u7535
p44
sVadjFactor
p45
F0.5
sVendDate
p46
V2014-04-23
p47
sVticker
p48
V300342
p49
sa(dp50
VadjFactor
p51
F0.9804381728
sVexchangeCD
p52
VXSHE
p53
sVsecID
p54
V300342.XSHE
p55
sVexDivDate
p56
V2014-04-23
p57
sVsecShortName
p58
V\u5929\u94f6\u673a\u7535
p59
sVaccumAdjFactor
p60
F0.3220308084
sVendDate
p61
V2013-06-07
p62
sVticker
p63
V300342
p64
sVperCashDiv
p65
F0.5
sa(dp66
VadjFactor
p67
F0.9785637856
sVexchangeCD
p68
VXSHE
p69
sVsecID
p70
V300342.XSHE
p71
sVexDivDate
p72
V2013-06-07
p73
sVsecShortName
p74
V\u5929\u94f6\u673a\u7535
p75
sVaccumAdjFactor
p76
F0.3151276869
sVendDate
p77
V1753-01-01
p78
sVticker
p79
V300342
p80
sVperCashDiv
p81
F0.4
sa.