(lp0
(dp1
VadjFactor
p2
F0.9640750885
sVexchangeCD
p3
VXSHG
p4
sVsecID
p5
V600036.XSHG
p6
sVsecShortNameEn
p7
VMerchants Bank
p8
sVexDivDate
p9
V2015-07-03
p10
sVsecShortName
p11
V\u62db\u5546\u94f6\u884c
p12
sVaccumAdjFactor
p13
F0.9640750885
sVendDate
p14
V2014-07-11
p15
sVticker
p16
V600036
p17
sVperCashDiv
p18
F0.67
sa(dp19
VadjFactor
p20
F0.9395711422
sVexchangeCD
p21
VXSHG
p22
sVsecID
p23
V600036.XSHG
p24
sVsecShortNameEn
p25
VMerchants Bank
p26
sVexDivDate
p27
V2014-07-11
p28
sVsecShortName
p29
V\u62db\u5546\u94f6\u884c
p30
sVaccumAdjFactor
p31
F0.9058171321
sVendDate
p32
V2013-09-05
p33
sVticker
p34
V600036
p35
sVperCashDiv
p36
F0.62
sa(dp37
VadjFactor
p38
F0.981238246
sVexchangeCD
p39
VXSHG
p40
sVsecID
p41
V600036.XSHG
p42
sVsecShortNameEn
p43
VMerchants Bank
p44
sVallotmentRatio
p45
F0.174
sVexDivDate
p46
V2013-09-05
p47
sVsecShortName
p48
V\u62db\u5546\u94f6\u884c
p49
sVaccumAdjFactor
p50
F0.8888224139
sVendDate
p51
V2013-06-13
p52
sVticker
p53
V600036
p54
sVallotmentPrice
p55
F9.29
sa(dp56
VadjFactor
p57
F0.9521639943
sVexchangeCD
p58
VXSHG
p59
sVsecID
p60
V600036.XSHG
p61
sVsecShortNameEn
p62
VMerchants Bank
p63
sVexDivDate
p64
V2013-06-13
p65
sVsecShortName
p66
V\u62db\u5546\u94f6\u884c
p67
sVaccumAdjFactor
p68
F0.8463046998
sVendDate
p69
V2012-06-07
p70
sVticker
p71
V600036
p72
sVperCashDiv
p73
F0.63
sa(dp74
VadjFactor
p75
F0.9640411139
sVexchangeCD
p76
VXSHG
p77
sVsecID
p78
V600036.XSHG
p79
sVsecShortNameEn
p80
VMerchants Bank
p81
sVexDivDate
p82
V2012-06-07
p83
sVsecShortName
p84
V\u62db\u5546\u94f6\u884c
p85
sVaccumAdjFactor
p86
F0.8158725255
sVendDate
p87
V2011-06-10
p88
sVticker
p89
V600036
p90
sVperCashDiv
p91
F0.42
sa(dp92
VadjFactor
p93
F0.9776234627
sVexchangeCD
p94
VXSHG
p95
sVsecID
p96
V600036.XSHG
p97
sVsecShortNameEn
p98
VMerchants Bank
p99
sVexDivDate
p100
V2011-06-10
p101
sVsecShortName
p102
V\u62db\u5546\u94f6\u884c
p103
sVaccumAdjFactor
p104
F0.7976161235
sVendDate
p105
V2010-07-01
p106
sVticker
p107
V600036
p108
sVperCashDiv
p109
F0.29
sa(dp110
VadjFactor
p111
F0.9838585854
sVexchangeCD
p112
VXSHG
p113
sVsecID
p114
V600036.XSHG
p115
sVsecShortNameEn
p116
VMerchants Bank
p117
sVexDivDate
p118
V2010-07-01
p119
sVsecShortName
p120
V\u62db\u5546\u94f6\u884c
p121
sVaccumAdjFactor
p122
F0.784741471
sVendDate
p123
V2010-03-15
p124
sVticker
p125
V600036
p126
sVperCashDiv
p127
F0.21
sa(dp128
VadjFactor
p129
F0.9478908181
sVexchangeCD
p130
VXSHG
p131
sVsecID
p132
V600036.XSHG
p133
sVsecShortNameEn
p134
VMerchants Bank
p135
sVallotmentRatio
p136
F0.13
sVexDivDate
p137
V2010-03-15
p138
sVsecShortName
p139
V\u62db\u5546\u94f6\u884c
p140
sVaccumAdjFactor
p141
F0.7438492349
sVendDate
p142
V2009-07-03
p143
sVticker
p144
V600036
p145
sVallotmentPrice
p146
F8.85
sa(dp147
VadjFactor
p148
F0.7658833861
sVexchangeCD
p149
VXSHG
p150
sVsecID
p151
V600036.XSHG
p152
sVsecShortNameEn
p153
VMerchants Bank
p154
sVexDivDate
p155
V2009-07-03
p156
sVsecShortName
p157
V\u62db\u5546\u94f6\u884c
p158
sVperShareDivRatio
p159
F0.3
sVaccumAdjFactor
p160
F0.5697017708
sVendDate
p161
V2008-07-28
p162
sVticker
p163
V600036
p164
sVperCashDiv
p165
F0.1
sa(dp166
VadjFactor
p167
F0.9887999892
sVexchangeCD
p168
VXSHG
p169
sVsecID
p170
V600036.XSHG
p171
sVsecShortNameEn
p172
VMerchants Bank
p173
sVexDivDate
p174
V2008-07-28
p175
sVsecShortName
p176
V\u62db\u5546\u94f6\u884c
p177
sVaccumAdjFactor
p178
F0.5633211048
sVendDate
p179
V2007-07-04
p180
sVticker
p181
V600036
p182
sVperCashDiv
p183
F0.28
sa(dp184
VadjFactor
p185
F0.9950860143
sVexchangeCD
p186
VXSHG
p187
sVsecID
p188
V600036.XSHG
p189
sVsecShortNameEn
p190
VMerchants Bank
p191
sVexDivDate
p192
V2007-07-04
p193
sVsecShortName
p194
V\u62db\u5546\u94f6\u884c
p195
sVaccumAdjFactor
p196
F0.5605529529
sVendDate
p197
V2006-09-21
p198
sVticker
p199
V600036
p200
sVperCashDiv
p201
F0.12
sa(dp202
VadjFactor
p203
F0.9811320901
sVexchangeCD
p204
VXSHG
p205
sVsecID
p206
V600036.XSHG
p207
sVsecShortNameEn
p208
VMerchants Bank
p209
sVexDivDate
p210
V2006-09-21
p211
sVsecShortName
p212
V\u62db\u5546\u94f6\u884c
p213
sVaccumAdjFactor
p214
F0.5499764903
sVendDate
p215
V2006-06-16
p216
sVticker
p217
V600036
p218
sVperCashDiv
p219
F0.18
sa(dp220
VadjFactor
p221
F0.9886040092
sVexchangeCD
p222
VXSHG
p223
sVsecID
p224
V600036.XSHG
p225
sVsecShortNameEn
p226
VMerchants Bank
p227
sVexDivDate
p228
V2006-06-16
p229
sVsecShortName
p230
V\u62db\u5546\u94f6\u884c
p231
sVaccumAdjFactor
p232
F0.5437089633
sVendDate
p233
V2006-02-27
p234
sVticker
p235
V600036
p236
sVperCashDiv
p237
F0.08
sa(dp238
VperShareTransRatio
p239
F0.25963
sVexchangeCD
p240
VXSHG
p241
sVsecID
p242
V600036.XSHG
p243
sVsecShortNameEn
p244
VMerchants Bank
p245
sVaccumAdjFactor
p246
F0.4362453666
sVexDivDate
p247
V2006-02-27
p248
sVsecShortName
p249
V\u62db\u5546\u94f6\u884c
p250
sVadjFactor
p251
F0.8023508826
sVendDate
p252
V2006-02-24
p253
sVticker
p254
V600036
p255
sa(dp256
VperShareTransRatio
p257
F0.08589
sVexchangeCD
p258
VXSHG
p259
sVsecID
p260
V600036.XSHG
p261
sVsecShortNameEn
p262
VMerchants Bank
p263
sVaccumAdjFactor
p264
F0.4362453666
sVexDivDate
p265
V2006-02-24
p266
sVsecShortName
p267
V\u62db\u5546\u94f6\u884c
p268
sVadjFactor
p269
I1
sVendDate
p270
V2005-06-20
p271
sVticker
p272
V600036
p273
sa(dp274
VperShareTransRatio
p275
F0.5
sVexchangeCD
p276
VXSHG
p277
sVsecID
p278
V600036.XSHG
p279
sVsecShortNameEn
p280
VMerchants Bank
p281
sVaccumAdjFactor
p282
F0.287235702
sVexDivDate
p283
V2005-06-20
p284
sVsecShortName
p285
V\u62db\u5546\u94f6\u884c
p286
sVadjFactor
p287
F0.6584269404
sVendDate
p288
V2004-05-11
p289
sVticker
p290
V600036
p291
sVperCashDiv
p292
F0.11
sa(dp293
VperShareTransRatio
p294
F0.2
sVexchangeCD
p295
VXSHG
p296
sVsecID
p297
V600036.XSHG
p298
sVsecShortNameEn
p299
VMerchants Bank
p300
sVaccumAdjFactor
p301
F0.2373759276
sVexDivDate
p302
V2004-05-11
p303
sVsecShortName
p304
V\u62db\u5546\u94f6\u884c
p305
sVadjFactor
p306
F0.8264151216
sVendDate
p307
V2003-07-16
p308
sVticker
p309
V600036
p310
sVperCashDiv
p311
F0.092
sa(dp312
VadjFactor
p313
F0.9900332093
sVexchangeCD
p314
VXSHG
p315
sVsecID
p316
V600036.XSHG
p317
sVsecShortNameEn
p318
VMerchants Bank
p319
sVexDivDate
p320
V2003-07-16
p321
sVsecShortName
p322
V\u62db\u5546\u94f6\u884c
p323
sVaccumAdjFactor
p324
F0.2350100514
sVendDate
p325
V1753-01-01
p326
sVticker
p327
V600036
p328
sVperCashDiv
p329
F0.12
sa.